; ModuleID = '5/914.c'
source_filename = "5/914.c"
target datalayout = "e-m:e-p270:32:32-p271:32:32-p272:64:64-i64:64-f80:128-n8:16:32:64-S128"
target triple = "x86_64-pc-linux-gnu"

@.str = private unnamed_addr constant [10 x i8] c"%lf %s %s\00", align 1
@.str.1 = private unnamed_addr constant [6 x i8] c"error\00", align 1
@.str.2 = private unnamed_addr constant [4 x i8] c"yes\00", align 1
@.str.3 = private unnamed_addr constant [3 x i8] c"no\00", align 1

; Function Attrs: noinline nounwind uwtable
define dso_local i32 @main() #0 {
  %1 = alloca i32, align 4
  %2 = alloca double, align 8
  %3 = alloca double, align 8
  %4 = alloca [501 x i8], align 16
  %5 = alloca [501 x i8], align 16
  %6 = alloca i8*, align 8
  %7 = alloca i8*, align 8
  %8 = alloca i32, align 4
  %9 = alloca i32, align 4
  %10 = alloca i32, align 4
  store i32 0, i32* %1, align 4
  store i32 0, i32* %8, align 4
  %11 = getelementptr inbounds [501 x i8], [501 x i8]* %4, i64 0, i64 0
  %12 = getelementptr inbounds [501 x i8], [501 x i8]* %5, i64 0, i64 0
  %13 = call i32 (i8*, ...) @__isoc99_scanf(i8* getelementptr inbounds ([10 x i8], [10 x i8]* @.str, i64 0, i64 0), double* %2, i8* %11, i8* %12)
  %14 = getelementptr inbounds [501 x i8], [501 x i8]* %4, i64 0, i64 0
  %15 = call i64 @strlen(i8* %14) #3
  %16 = trunc i64 %15 to i32
  store i32 %16, i32* %9, align 4
  %17 = getelementptr inbounds [501 x i8], [501 x i8]* %5, i64 0, i64 0
  %18 = call i64 @strlen(i8* %17) #3
  %19 = trunc i64 %18 to i32
  store i32 %19, i32* %10, align 4
  %20 = load i32, i32* %9, align 4
  %21 = load i32, i32* %10, align 4
  %22 = icmp eq i32 %20, %21
  br i1 %22, label %23, label %108

23:                                               ; preds = %0
  %24 = getelementptr inbounds [501 x i8], [501 x i8]* %4, i64 0, i64 0
  store i8* %24, i8** %6, align 8
  %25 = getelementptr inbounds [501 x i8], [501 x i8]* %5, i64 0, i64 0
  store i8* %25, i8** %7, align 8
  br label %26

26:                                               ; preds = %92, %23
  %27 = load i8*, i8** %6, align 8
  %28 = load i8, i8* %27, align 1
  %29 = sext i8 %28 to i32
  %30 = icmp ne i32 %29, 0
  br i1 %30, label %31, label %93

31:                                               ; preds = %26
  %32 = load i8*, i8** %6, align 8
  %33 = load i8, i8* %32, align 1
  %34 = sext i8 %33 to i32
  %35 = icmp ne i32 %34, 65
  br i1 %35, label %36, label %53

36:                                               ; preds = %31
  %37 = load i8*, i8** %6, align 8
  %38 = load i8, i8* %37, align 1
  %39 = sext i8 %38 to i32
  %40 = icmp ne i32 %39, 84
  br i1 %40, label %41, label %53

41:                                               ; preds = %36
  %42 = load i8*, i8** %6, align 8
  %43 = load i8, i8* %42, align 1
  %44 = sext i8 %43 to i32
  %45 = icmp ne i32 %44, 67
  br i1 %45, label %46, label %53

46:                                               ; preds = %41
  %47 = load i8*, i8** %6, align 8
  %48 = load i8, i8* %47, align 1
  %49 = sext i8 %48 to i32
  %50 = icmp ne i32 %49, 71
  br i1 %50, label %51, label %53

51:                                               ; preds = %46
  %52 = call i32 (i8*, ...) @printf(i8* getelementptr inbounds ([6 x i8], [6 x i8]* @.str.1, i64 0, i64 0))
  store i32 0, i32* %1, align 4
  br label %111

53:                                               ; preds = %46, %41, %36, %31
  %54 = load i8*, i8** %7, align 8
  %55 = load i8, i8* %54, align 1
  %56 = sext i8 %55 to i32
  %57 = icmp ne i32 %56, 65
  br i1 %57, label %58, label %75

58:                                               ; preds = %53
  %59 = load i8*, i8** %7, align 8
  %60 = load i8, i8* %59, align 1
  %61 = sext i8 %60 to i32
  %62 = icmp ne i32 %61, 84
  br i1 %62, label %63, label %75

63:                                               ; preds = %58
  %64 = load i8*, i8** %7, align 8
  %65 = load i8, i8* %64, align 1
  %66 = sext i8 %65 to i32
  %67 = icmp ne i32 %66, 67
  br i1 %67, label %68, label %75

68:                                               ; preds = %63
  %69 = load i8*, i8** %7, align 8
  %70 = load i8, i8* %69, align 1
  %71 = sext i8 %70 to i32
  %72 = icmp ne i32 %71, 71
  br i1 %72, label %73, label %75

73:                                               ; preds = %68
  %74 = call i32 (i8*, ...) @printf(i8* getelementptr inbounds ([6 x i8], [6 x i8]* @.str.1, i64 0, i64 0))
  store i32 0, i32* %1, align 4
  br label %111

75:                                               ; preds = %68, %63, %58, %53
  %76 = load i8*, i8** %6, align 8
  %77 = load i8, i8* %76, align 1
  %78 = sext i8 %77 to i32
  %79 = load i8*, i8** %7, align 8
  %80 = load i8, i8* %79, align 1
  %81 = sext i8 %80 to i32
  %82 = icmp eq i32 %78, %81
  br i1 %82, label %83, label %86

83:                                               ; preds = %75
  %84 = load i32, i32* %8, align 4
  %85 = add nsw i32 %84, 1
  store i32 %85, i32* %8, align 4
  br label %86

86:                                               ; preds = %83, %75
  %87 = load i8*, i8** %6, align 8
  %88 = getelementptr inbounds i8, i8* %87, i32 1
  store i8* %88, i8** %6, align 8
  %89 = load i8*, i8** %7, align 8
  %90 = getelementptr inbounds i8, i8* %89, i32 1
  store i8* %90, i8** %7, align 8
  br label %91

91:                                               ; preds = %86
  br label %92

92:                                               ; preds = %91
  br label %26

93:                                               ; preds = %26
  %94 = load i32, i32* %8, align 4
  %95 = sitofp i32 %94 to double
  %96 = fmul double %95, 1.000000e+00
  %97 = load i32, i32* %9, align 4
  %98 = sitofp i32 %97 to double
  %99 = fdiv double %96, %98
  store double %99, double* %3, align 8
  %100 = load double, double* %3, align 8
  %101 = load double, double* %2, align 8
  %102 = fcmp ogt double %100, %101
  br i1 %102, label %103, label %105

103:                                              ; preds = %93
  %104 = call i32 (i8*, ...) @printf(i8* getelementptr inbounds ([4 x i8], [4 x i8]* @.str.2, i64 0, i64 0))
  br label %107

105:                                              ; preds = %93
  %106 = call i32 (i8*, ...) @printf(i8* getelementptr inbounds ([3 x i8], [3 x i8]* @.str.3, i64 0, i64 0))
  br label %107

107:                                              ; preds = %105, %103
  br label %110

108:                                              ; preds = %0
  %109 = call i32 (i8*, ...) @printf(i8* getelementptr inbounds ([6 x i8], [6 x i8]* @.str.1, i64 0, i64 0))
  br label %110

110:                                              ; preds = %108, %107
  store i32 0, i32* %1, align 4
  br label %111

111:                                              ; preds = %110, %73, %51
  %112 = load i32, i32* %1, align 4
  ret i32 %112
}

declare dso_local i32 @__isoc99_scanf(i8*, ...) #1

; Function Attrs: nounwind readonly
declare dso_local i64 @strlen(i8*) #2

declare dso_local i32 @printf(i8*, ...) #1


!llvm.module.flags = !{!0}
!llvm.ident = !{!1}

!0 = !{i32 1, !"wchar_size", i32 4}
!1 = !{!"clang version 10.0.0-4ubuntu1 "}
